; Function Attrs: mustprogress uwtable
define void @_ZN6icu_757UVector15insertElementAtEiiR10UErrorCode(ptr nocapture noundef nonnull align 8 dereferenceable(40) %this, i32 noundef %elem, i32 noundef %index, ptr nocapture noundef nonnull align 4 dereferenceable(4) %status) local_unnamed_addr #1 align 2 {
entry:
  %count = getelementptr inbounds i8, ptr %this, i64 8
  %0 = load i32, ptr %count, align 8
  %add = add nsw i32 %0, 1
  %1 = load i32, ptr %status, align 4
  %cmp.i.i = icmp slt i32 %1, 1
  br i1 %cmp.i.i, label %if.end.i, label %if.end17

if.end.i:                                         ; preds = %entry
  %cmp.i = icmp slt i32 %0, -1
  br i1 %cmp.i, label %if.then2.i, label %if.end3.i

if.then2.i:                                       ; preds = %if.end.i
  store i32 1, ptr %status, align 4
  br label %if.end17

if.end3.i:                                        ; preds = %if.end.i
  %capacity.i = getelementptr inbounds i8, ptr %this, i64 12
  %2 = load i32, ptr %capacity.i, align 4
  %cmp4.i.not = icmp sgt i32 %2, %0
  br i1 %cmp4.i.not, label %if.then, label %if.then5.i

if.then5.i:                                       ; preds = %if.end3.i
  %cmp7.i = icmp sgt i32 %2, 1073741823
  br i1 %cmp7.i, label %if.then8.i, label %if.end9.i

if.then8.i:                                       ; preds = %if.then5.i
  store i32 1, ptr %status, align 4
  br label %if.end17

if.end9.i:                                        ; preds = %if.then5.i
  %mul.i = shl nsw i32 %2, 1
  %spec.select.i = tail call i32 @llvm.smax.i32(i32 %mul.i, i32 %add)
  %cmp14.i = icmp ugt i32 %spec.select.i, 268435455
  br i1 %cmp14.i, label %if.then15.i, label %if.end16.i

if.then15.i:                                      ; preds = %if.end9.i
  store i32 1, ptr %status, align 4
  br label %if.end17

if.end16.i:                                       ; preds = %if.end9.i
  %elements.i = getelementptr inbounds i8, ptr %this, i64 16
  %3 = load ptr, ptr %elements.i, align 8
  %4 = shl nuw nsw i32 %spec.select.i, 3
  %mul17.i = zext nneg i32 %4 to i64
  %call18.i = tail call ptr @uprv_realloc_75(ptr noundef %3, i64 noundef %mul17.i) #18
  %cmp19.i = icmp eq ptr %call18.i, null
  br i1 %cmp19.i, label %if.then20.i, label %if.end21.i

if.then20.i:                                      ; preds = %if.end16.i
  store i32 7, ptr %status, align 4
  br label %if.end17

if.end21.i:                                       ; preds = %if.end16.i
  store ptr %call18.i, ptr %elements.i, align 8
  store i32 %spec.select.i, ptr %capacity.i, align 4
  %.pre = load i32, ptr %count, align 8
  br label %if.then

if.then:                                          ; preds = %if.end21.i, %if.end3.i
  %5 = phi i32 [ %.pre, %if.end21.i ], [ %0, %if.end3.i ]
  %cmp = icmp slt i32 %index, 0
  %cmp3.not = icmp slt i32 %5, %index
  %or.cond = select i1 %cmp, i1 true, i1 %cmp3.not
  br i1 %or.cond, label %if.else, label %for.cond.preheader

for.cond.preheader:                               ; preds = %if.then
  %cmp611 = icmp sgt i32 %5, %index
  br i1 %cmp611, label %for.body.lr.ph, label %for.end

for.body.lr.ph:                                   ; preds = %for.cond.preheader
  %elements = getelementptr inbounds i8, ptr %this, i64 16
  %6 = zext nneg i32 %5 to i64
  %7 = zext nneg i32 %index to i64
  br label %for.body

for.body:                                         ; preds = %for.body.lr.ph, %for.body
  %indvars.iv = phi i64 [ %6, %for.body.lr.ph ], [ %indvars.iv.next, %for.body ]
  %8 = load ptr, ptr %elements, align 8
  %9 = getelementptr %union.UElement, ptr %8, i64 %indvars.iv
  %arrayidx = getelementptr i8, ptr %9, i64 -8
  %10 = load i64, ptr %arrayidx, align 8
  store i64 %10, ptr %9, align 8
  %indvars.iv.next = add nsw i64 %indvars.iv, -1
  %cmp6 = icmp sgt i64 %indvars.iv.next, %7
  br i1 %cmp6, label %for.body, label %for.end, !llvm.loop !12

for.end:                                          ; preds = %for.body, %for.cond.preheader
  %elements10 = getelementptr inbounds i8, ptr %this, i64 16
  %11 = load ptr, ptr %elements10, align 8
  %idxprom11 = zext nneg i32 %index to i64
  %arrayidx12 = getelementptr inbounds %union.UElement, ptr %11, i64 %idxprom11
  store ptr null, ptr %arrayidx12, align 8
  %12 = load ptr, ptr %elements10, align 8
  %arrayidx15 = getelementptr inbounds %union.UElement, ptr %12, i64 %idxprom11
  store i32 %elem, ptr %arrayidx15, align 8
  %13 = load i32, ptr %count, align 8
  %inc = add nsw i32 %13, 1
  store i32 %inc, ptr %count, align 8
  br label %if.end17

if.else:                                          ; preds = %if.then
  store i32 1, ptr %status, align 4
  br label %if.end17

if.end17:                                         ; preds = %entry, %if.then20.i, %if.then15.i, %if.then8.i, %if.then2.i, %for.end, %if.else
  ret void
}